; ModuleID = '33/1251.c'
source_filename = "33/1251.c"
target datalayout = "e-m:e-p270:32:32-p271:32:32-p272:64:64-i64:64-f80:128-n8:16:32:64-S128"
target triple = "x86_64-pc-linux-gnu"

@.str = private unnamed_addr constant [3 x i8] c"%d\00", align 1
@.str.1 = private unnamed_addr constant [3 x i8] c"%s\00", align 1
@.str.2 = private unnamed_addr constant [2 x i8] c"T\00", align 1
@.str.3 = private unnamed_addr constant [2 x i8] c"A\00", align 1
@.str.4 = private unnamed_addr constant [2 x i8] c"G\00", align 1
@.str.5 = private unnamed_addr constant [2 x i8] c"C\00", align 1
@.str.6 = private unnamed_addr constant [2 x i8] c"\0A\00", align 1

; Function Attrs: noinline nounwind uwtable
define dso_local i32 @main() #0 {
  %1 = alloca i32, align 4
  %2 = alloca [1000 x [255 x i8]], align 16
  %3 = alloca i32, align 4
  %4 = alloca i32, align 4
  %5 = alloca i32, align 4
  %6 = alloca i32, align 4
  store i32 0, i32* %1, align 4
  %7 = call i32 (i8*, ...) @__isoc99_scanf(i8* getelementptr inbounds ([3 x i8], [3 x i8]* @.str, i64 0, i64 0), i32* %3)
  store i32 0, i32* %4, align 4
  br label %8

8:                                                ; preds = %18, %0
  %9 = load i32, i32* %4, align 4
  %10 = load i32, i32* %3, align 4
  %11 = icmp slt i32 %9, %10
  br i1 %11, label %12, label %21

12:                                               ; preds = %8
  %13 = load i32, i32* %4, align 4
  %14 = sext i32 %13 to i64
  %15 = getelementptr inbounds [1000 x [255 x i8]], [1000 x [255 x i8]]* %2, i64 0, i64 %14
  %16 = getelementptr inbounds [255 x i8], [255 x i8]* %15, i64 0, i64 0
  %17 = call i32 (i8*, ...) @__isoc99_scanf(i8* getelementptr inbounds ([3 x i8], [3 x i8]* @.str.1, i64 0, i64 0), i8* %16)
  br label %18

18:                                               ; preds = %12
  %19 = load i32, i32* %4, align 4
  %20 = add nsw i32 %19, 1
  store i32 %20, i32* %4, align 4
  br label %8

21:                                               ; preds = %8
  store i32 0, i32* %6, align 4
  br label %22

22:                                               ; preds = %87, %21
  %23 = load i32, i32* %6, align 4
  %24 = load i32, i32* %3, align 4
  %25 = icmp slt i32 %23, %24
  br i1 %25, label %26, label %90

26:                                               ; preds = %22
  store i32 0, i32* %5, align 4
  br label %27

27:                                               ; preds = %82, %26
  %28 = load i32, i32* %5, align 4
  %29 = icmp slt i32 %28, 255
  br i1 %29, label %30, label %85

30:                                               ; preds = %27
  %31 = load i32, i32* %6, align 4
  %32 = sext i32 %31 to i64
  %33 = getelementptr inbounds [1000 x [255 x i8]], [1000 x [255 x i8]]* %2, i64 0, i64 %32
  %34 = load i32, i32* %5, align 4
  %35 = sext i32 %34 to i64
  %36 = getelementptr inbounds [255 x i8], [255 x i8]* %33, i64 0, i64 %35
  %37 = load i8, i8* %36, align 1
  %38 = sext i8 %37 to i32
  %39 = icmp eq i32 %38, 65
  br i1 %39, label %40, label %42

40:                                               ; preds = %30
  %41 = call i32 (i8*, ...) @printf(i8* getelementptr inbounds ([2 x i8], [2 x i8]* @.str.2, i64 0, i64 0))
  br label %81

42:                                               ; preds = %30
  %43 = load i32, i32* %6, align 4
  %44 = sext i32 %43 to i64
  %45 = getelementptr inbounds [1000 x [255 x i8]], [1000 x [255 x i8]]* %2, i64 0, i64 %44
  %46 = load i32, i32* %5, align 4
  %47 = sext i32 %46 to i64
  %48 = getelementptr inbounds [255 x i8], [255 x i8]* %45, i64 0, i64 %47
  %49 = load i8, i8* %48, align 1
  %50 = sext i8 %49 to i32
  %51 = icmp eq i32 %50, 84
  br i1 %51, label %52, label %54

52:                                               ; preds = %42
  %53 = call i32 (i8*, ...) @printf(i8* getelementptr inbounds ([2 x i8], [2 x i8]* @.str.3, i64 0, i64 0))
  br label %80

54:                                               ; preds = %42
  %55 = load i32, i32* %6, align 4
  %56 = sext i32 %55 to i64
  %57 = getelementptr inbounds [1000 x [255 x i8]], [1000 x [255 x i8]]* %2, i64 0, i64 %56
  %58 = load i32, i32* %5, align 4
  %59 = sext i32 %58 to i64
  %60 = getelementptr inbounds [255 x i8], [255 x i8]* %57, i64 0, i64 %59
  %61 = load i8, i8* %60, align 1
  %62 = sext i8 %61 to i32
  %63 = icmp eq i32 %62, 67
  br i1 %63, label %64, label %66

64:                                               ; preds = %54
  %65 = call i32 (i8*, ...) @printf(i8* getelementptr inbounds ([2 x i8], [2 x i8]* @.str.4, i64 0, i64 0))
  br label %79

66:                                               ; preds = %54
  %67 = load i32, i32* %6, align 4
  %68 = sext i32 %67 to i64
  %69 = getelementptr inbounds [1000 x [255 x i8]], [1000 x [255 x i8]]* %2, i64 0, i64 %68
  %70 = load i32, i32* %5, align 4
  %71 = sext i32 %70 to i64
  %72 = getelementptr inbounds [255 x i8], [255 x i8]* %69, i64 0, i64 %71
  %73 = load i8, i8* %72, align 1
  %74 = sext i8 %73 to i32
  %75 = icmp eq i32 %74, 71
  br i1 %75, label %76, label %78

76:                                               ; preds = %66
  %77 = call i32 (i8*, ...) @printf(i8* getelementptr inbounds ([2 x i8], [2 x i8]* @.str.5, i64 0, i64 0))
  br label %78

78:                                               ; preds = %76, %66
  br label %79

79:                                               ; preds = %78, %64
  br label %80

80:                                               ; preds = %79, %52
  br label %81

81:                                               ; preds = %80, %40
  br label %82

82:                                               ; preds = %81
  %83 = load i32, i32* %5, align 4
  %84 = add nsw i32 %83, 1
  store i32 %84, i32* %5, align 4
  br label %27

85:                                               ; preds = %27
  %86 = call i32 (i8*, ...) @printf(i8* getelementptr inbounds ([2 x i8], [2 x i8]* @.str.6, i64 0, i64 0))
  br label %87

87:                                               ; preds = %85
  %88 = load i32, i32* %6, align 4
  %89 = add nsw i32 %88, 1
  store i32 %89, i32* %6, align 4
  br label %22

90:                                               ; preds = %22
  ret i32 0
}

declare dso_local i32 @__isoc99_scanf(i8*, ...) #1

declare dso_local i32 @printf(i8*, ...) #1


!llvm.module.flags = !{!0}
!llvm.ident = !{!1}

!0 = !{i32 1, !"wchar_size", i32 4}
!1 = !{!"clang version 10.0.0-4ubuntu1 "}
